target datalayout = "e-m:e-p270:32:32-p271:32:32-p272:64:64-i64:64-i128:128-f80:128-n8:16:32:64-S128"
target triple = "x86_64-pc-linux-gnu"

@.str.6 = private unnamed_addr constant [3 x i8] c"rb\00", align 1
@.str.7 = private unnamed_addr constant [3 x i8] c"wb\00", align 1

; Function Attrs: nounwind uwtable
define hidden zeroext i1 @SDL_SYS_CopyFile(ptr noundef %0, ptr noundef %1) #0 {
  %3 = alloca ptr, align 8
  %4 = alloca ptr, align 8
  %5 = alloca ptr, align 8
  %6 = alloca ptr, align 8
  %7 = alloca ptr, align 8
  %8 = alloca i64, align 8
  %9 = alloca i64, align 8
  %10 = alloca i8, align 1
  store ptr %0, ptr %3, align 8
  store ptr %1, ptr %4, align 8
  call void @llvm.lifetime.start.p0(i64 8, ptr %5) #6
  store ptr null, ptr %5, align 8
  call void @llvm.lifetime.start.p0(i64 8, ptr %6) #6
  store ptr null, ptr %6, align 8
  call void @llvm.lifetime.start.p0(i64 8, ptr %7) #6
  store ptr null, ptr %7, align 8
  call void @llvm.lifetime.start.p0(i64 8, ptr %8) #6
  store i64 4096, ptr %8, align 8
  call void @llvm.lifetime.start.p0(i64 8, ptr %9) #6
  call void @llvm.lifetime.start.p0(i64 1, ptr %10) #6
  store i8 0, ptr %10, align 1
  %11 = load ptr, ptr %3, align 8
  %12 = call ptr @SDL_IOFromFile_REAL(ptr noundef %11, ptr noundef @.str.6)
  store ptr %12, ptr %6, align 8
  %13 = load ptr, ptr %6, align 8
  %14 = icmp ne ptr %13, null
  br i1 %14, label %16, label %15

15:                                               ; preds = %2
  br label %57

16:                                               ; preds = %2
  %17 = load ptr, ptr %4, align 8
  %18 = call ptr @SDL_IOFromFile_REAL(ptr noundef %17, ptr noundef @.str.7)
  store ptr %18, ptr %7, align 8
  %19 = load ptr, ptr %7, align 8
  %20 = icmp ne ptr %19, null
  br i1 %20, label %22, label %21

21:                                               ; preds = %16
  br label %57

22:                                               ; preds = %16
  %23 = call noalias ptr @SDL_malloc_REAL(i64 noundef 4096)
  store ptr %23, ptr %5, align 8
  %24 = load ptr, ptr %5, align 8
  %25 = icmp ne ptr %24, null
  br i1 %25, label %27, label %26

26:                                               ; preds = %22
  br label %57

27:                                               ; preds = %22
  br label %28

28:                                               ; preds = %41, %27
  %29 = load ptr, ptr %6, align 8
  %30 = load ptr, ptr %5, align 8
  %31 = call i64 @SDL_ReadIO_REAL(ptr noundef %29, ptr noundef %30, i64 noundef 4096)
  store i64 %31, ptr %9, align 8
  %32 = icmp ugt i64 %31, 0
  br i1 %32, label %33, label %42

33:                                               ; preds = %28
  %34 = load ptr, ptr %7, align 8
  %35 = load ptr, ptr %5, align 8
  %36 = load i64, ptr %9, align 8
  %37 = call i64 @SDL_WriteIO_REAL(ptr noundef %34, ptr noundef %35, i64 noundef %36)
  %38 = load i64, ptr %9, align 8
  %39 = icmp ult i64 %37, %38
  br i1 %39, label %40, label %41

40:                                               ; preds = %33
  br label %57

41:                                               ; preds = %33
  br label %28, !llvm.loop !6

42:                                               ; preds = %28
  %43 = load ptr, ptr %6, align 8
  %44 = call i32 @SDL_GetIOStatus_REAL(ptr noundef %43)
  %45 = icmp ne i32 %44, 2
  br i1 %45, label %46, label %47

46:                                               ; preds = %42
  br label %57

47:                                               ; preds = %42
  %48 = load ptr, ptr %6, align 8
  %49 = call zeroext i1 @SDL_CloseIO_REAL(ptr noundef %48)
  store ptr null, ptr %6, align 8
  %50 = load ptr, ptr %7, align 8
  %51 = call zeroext i1 @SDL_FlushIO_REAL(ptr noundef %50)
  br i1 %51, label %53, label %52

52:                                               ; preds = %47
  br label %57

53:                                               ; preds = %47
  %54 = load ptr, ptr %7, align 8
  %55 = call zeroext i1 @SDL_CloseIO_REAL(ptr noundef %54)
  %56 = zext i1 %55 to i8
  store i8 %56, ptr %10, align 1
  store ptr null, ptr %7, align 8
  br label %57

57:                                               ; preds = %53, %52, %46, %40, %26, %21, %15
  %58 = load ptr, ptr %7, align 8
  %59 = icmp ne ptr %58, null
  br i1 %59, label %60, label %63

60:                                               ; preds = %57
  %61 = load ptr, ptr %7, align 8
  %62 = call zeroext i1 @SDL_CloseIO_REAL(ptr noundef %61)
  br label %63

63:                                               ; preds = %60, %57
  %64 = load ptr, ptr %6, align 8
  %65 = icmp ne ptr %64, null
  br i1 %65, label %66, label %69

66:                                               ; preds = %63
  %67 = load ptr, ptr %6, align 8
  %68 = call zeroext i1 @SDL_CloseIO_REAL(ptr noundef %67)
  br label %69

69:                                               ; preds = %66, %63
  %70 = load ptr, ptr %5, align 8
  call void @SDL_free_REAL(ptr noundef %70)
  %71 = load i8, ptr %10, align 1, !range !7, !noundef !8
  %72 = trunc i8 %71 to i1
  call void @llvm.lifetime.end.p0(i64 1, ptr %10) #6
  call void @llvm.lifetime.end.p0(i64 8, ptr %9) #6
  call void @llvm.lifetime.end.p0(i64 8, ptr %8) #6
  call void @llvm.lifetime.end.p0(i64 8, ptr %7) #6
  call void @llvm.lifetime.end.p0(i64 8, ptr %6) #6
  call void @llvm.lifetime.end.p0(i64 8, ptr %5) #6
  ret i1 %72
}