; Function Attrs: nounwind uwtable
define hidden zeroext i1 @SDL_SYS_CopyFile(ptr noundef %0, ptr noundef %1) local_unnamed_addr #0 {
  %3 = tail call ptr @SDL_IOFromFile_REAL(ptr noundef %0, ptr noundef nonnull @.str.6) #7
  %.not = icmp eq ptr %3, null
  br i1 %.not, label %.thread.thread, label %4

4:                                                ; preds = %2
  %5 = tail call ptr @SDL_IOFromFile_REAL(ptr noundef %1, ptr noundef nonnull @.str.7) #7
  %.not28 = icmp eq ptr %5, null
  br i1 %.not28, label %.thread55, label %6

6:                                                ; preds = %4
  %7 = tail call noalias ptr @SDL_malloc_REAL(i64 noundef 4096) #7
  %.not29 = icmp eq ptr %7, null
  br i1 %.not29, label %.thread55.sink.split, label %.preheader

.preheader:                                       ; preds = %6, %9
  %8 = tail call i64 @SDL_ReadIO_REAL(ptr noundef nonnull %3, ptr noundef nonnull %7, i64 noundef 4096) #7
  %.not30 = icmp eq i64 %8, 0
  br i1 %.not30, label %12, label %9

9:                                                ; preds = %.preheader
  %10 = tail call i64 @SDL_WriteIO_REAL(ptr noundef nonnull %5, ptr noundef nonnull %7, i64 noundef %8) #7
  %11 = icmp ult i64 %10, %8
  br i1 %11, label %.thread55.sink.split, label %.preheader, !llvm.loop !6

12:                                               ; preds = %.preheader
  %13 = tail call i32 @SDL_GetIOStatus_REAL(ptr noundef nonnull %3) #7
  %.not31 = icmp eq i32 %13, 2
  br i1 %.not31, label %14, label %.thread55.sink.split

14:                                               ; preds = %12
  %15 = tail call zeroext i1 @SDL_CloseIO_REAL(ptr noundef nonnull %3) #7
  %16 = tail call zeroext i1 @SDL_FlushIO_REAL(ptr noundef nonnull %5) #7
  %17 = tail call zeroext i1 @SDL_CloseIO_REAL(ptr noundef nonnull %5) #7
  %. = select i1 %16, i1 %17, i1 false
  br label %.thread.thread

.thread55.sink.split:                             ; preds = %9, %6, %12
  %18 = tail call zeroext i1 @SDL_CloseIO_REAL(ptr noundef nonnull %5) #7
  br label %.thread55

.thread55:                                        ; preds = %.thread55.sink.split, %4
  %.0204062 = phi ptr [ null, %4 ], [ %7, %.thread55.sink.split ]
  %19 = tail call zeroext i1 @SDL_CloseIO_REAL(ptr noundef nonnull %3) #7
  br label %.thread.thread

.thread.thread:                                   ; preds = %14, %2, %.thread55
  %.0204063 = phi ptr [ %.0204062, %.thread55 ], [ null, %2 ], [ %7, %14 ]
  %.04161 = phi i1 [ false, %.thread55 ], [ false, %2 ], [ %., %14 ]
  tail call void @SDL_free_REAL(ptr noundef %.0204063) #7
  ret i1 %.04161
}